(dp0
Vembolism
p1
I3
sVmandible
p2
I1
sVrelieve
p3
I1
sVobstruction
p4
I9
sVmild
p5
I372
sS'varices'
p6
I1
sS'valvuloplasty'
p7
I1
sS'localized'
p8
I4
sS'osteoporosis'
p9
I4
sVincrease
p10
I101
sS'bolus'
p11
I1
sS'orthopedic'
p12
I2
sVcompensate
p13
I1
sVstable
p14
I349
sVperiphery
p15
I5
sVrheumatoid arthritis
p16
I3
sS'void'
p17
I3
sS'induce'
p18
I1
sS'artery'
p19
I23
sVESR
p20
I1
sVcondition
p21
I4
sS'anemia'
p22
I2
sVprogression
p23
I5
sS'supine'
p24
I4
sVenhance
p25
I4
sVobesity
p26
I2
sS'antibiotic'
p27
I2
sVconsistent
p28
I130
sVsensation
p29
I3
sS'bacteria'
p30
I2
sVairways
p31
I27
sVcomponent
p32
I2
sVcommunicable
p33
I1
sS'cardiac catheterization'
p34
I1
sVSC
p35
I5
sS'perforation'
p36
I1
sVsubstance
p37
I2
sVrespiration
p38
I1
sVtaper
p39
I2
sVshift
p40
I10
sVetiology
p41
I8
sS'trial'
p42
I38
sVcyst
p43
I39
sVpica
p44
I201
sVperitoneum
p45
I11
sS'EKG'
p46
I3
sS'trachea'
p47
I94
sVhighly
p48
I3
sVdecrease
p49
I24
sVligament
p50
I2
sVmammogram
p51
I1
sVvehicle
p52
I17
sS'tachycardia'
p53
I9
sS'ischemia'
p54
I1
sVlungs
p55
I1654
sVinfection
p56
I67
sVreflux
p57
I2
sS'cutaneous'
p58
I7
sVobvious
p59
I8
sVfollowing
p60
I7
sS'cardioversion'
p61
I1
sS'indicated'
p62
I18
sS'palpitations'
p63
I7
sVoccur
p64
I1
sVinformation
p65
I1
sS'syndrome'
p66
I7
sVprovide
p67
I1
sVverify
p68
I1
sS'hematoma'
p69
I3
sVadjacent
p70
I16
sS'optimal'
p71
I2
sS'lesion'
p72
I36
sS'axilla'
p73
I18
sVarthritis
p74
I23
sVvariant
p75
I1
sS'abdomen'
p76
I85
sVdeltoid
p77
I1
sVretain
p78
I2
sS'cardiac'
p79
I323
sVprostate
p80
I13
sVstress
p81
I3
sVattempt
p82
I1
sS'arthralgia'
p83
I1
sS'ablation'
p84
I1
sVappreciate
p85
I16
sVcorrespond
p86
I8
sVinform
p87
I5
sVmaintain
p88
I4
sVmastectomy
p89
I7
sVvary
p90
I1
sS'coronary'
p91
I14
sS'monitor'
p92
I14
sVradiologist
p93
I3
sS'symptoms'
p94
I20
sVRA
p95
I21
sS'nausea'
p96
I15
sVpending
p97
I1
sS'hysterectomy'
p98
I1
sVcombination
p99
I7
sVatherosclerosis
p100
I16
sS'hypoxia'
p101
I18
sVvomit
p102
I26
sVinterrupt
p103
I2
sVdiscuss
p104
I10
sVopportunistic infection
p105
I1
sVbone marrow
p106
I17
sS'nasal congestion'
p107
I1
sVclavicle
p108
I39
sVpleurisy
p109
I2
sVreduce
p110
I2
sVdeficiency
p111
I1
sVwitness
p112
I1
sS'vertigo'
p113
I1
sS'allergic reaction'
p114
I1
sS'infarct'
p115
I5
sVemphysema
p116
I91
sS'trauma'
p117
I12
sVmedicine
p118
I2
sS'pneumothorax'
p119
I2547
sVpossibility
p120
I2
sS'myocardial infarction'
p121
I2
sVflare
p122
I1
sVdiabetic
p123
I1
sVfeasible
p124
I1
sVprojectile
p125
I2
sS'fatigue'
p126
I7
sVdwelling
p127
I1
sS'distal'
p128
I39
sVtemperature
p129
I1
sVconstruct
p130
I1
sVindicate
p131
I31
sVattack
p132
I4
sS'fibrillation'
p133
I3
sS'chemotherapy'
p134
I2
sS'anus'
p135
I1
sS'prosthesis'
p136
I5
sVdiminish
p137
I8
sVsymptom
p138
I23
sS'congenital'
p139
I2
sVanxiety
p140
I1
sS'aspiration'
p141
I16
sS'intermittent'
p142
I5
sVinfectious
p143
I20
sS'pneumonia'
p144
I296
sVexert
p145
I17
sVerosions
p146
I1
sVdementia
p147
I1
sS'BID'
p148
I1
sS'neutropenia'
p149
I1
sS'fracture'
p150
I208
sS'stenosis'
p151
I4
sVCOPD
p152
I86
sVcompress
p153
I4
sS'indwelling'
p154
I1
sS'carcinoma'
p155
I22
sVsignificant
p156
I86
sVposition
p157
I63
sVextremely
p158
I2
sVconspicuous
p159
I3
sVepisode
p160
I7
sS'renal'
p161
I24
sVprior to
p162
I8
sVdisease
p163
I1441
sS'suture'
p164
I10
sVterminate
p165
I29
sVelevate
p166
I33
sVsutures
p167
I5
sS'intraperitoneal'
p168
I41
sVfactor
p169
I19
sVadequate
p170
I2
sS'biopsy'
p171
I2
sS'arrhythmia'
p172
I1
sVjoint
p173
I35
sS'malaise'
p174
I1
sVtuberculosis
p175
I61
sVwheeze
p176
I6
sVreveal
p177
I48
sVregarding
p178
I2
sVcontain
p179
I5
sVobscure
p180
I21
sVrequire
p181
I5
sVrespond
p182
I8
sS'lethargy'
p183
I1
sS'peripheral'
p184
I20
sVmigration
p185
I1
sVencephalopathy
p186
I2
sVstigma
p187
I1
sVsurgery
p188
I99
sS'electrode'
p189
I1
sVcontusion
p190
I4
sS'subclavian'
p191
I19
sVdetect
p192
I1
sVvoluntary
p193
I2
sVsubsequent
p194
I1
sVreview
p195
I6
sVcurrently
p196
I6
sVstate
p197
I35
sVpulmonary fibrosis
p198
I8
sVPO
p199
I12
sVavailable
p200
I243
sVability
p201
I12
sVextend
p202
I2
sVshortness of breath
p203
I183
sS'coma'
p204
I6
sVreaction
p205
I7
sS'sputum'
p206
I10
sS'history positive'
p207
I1
sVsensitive
p208
I1
sVcartilage
p209
I5
sVlong-term
p210
I2
sVreside
p211
I2
sVseizure
p212
I6
sS'colon'
p213
I15
sVpregnancy
p214
I4
sS'pulmonary'
p215
I2429
sS'dyspnea'
p216
I244
sS'recur'
p217
I10
sVtreat
p218
I13
sVanomaly
p219
I1
sS'acuity'
p220
I1
sVinfect
p221
I86
sVconcerning
p222
I22
sVobserve
p223
I1
sS'external'
p224
I14
sVpresent
p225
I406
sVphysician
p226
I5
sS'hypotension'
p227
I2
sVprocedure
p228
I11
sVpericarditis
p229
I1
sS'ureter'
p230
I1
sVcharacterize
p231
I6
sS'sarcoma'
p232
I5
sVabscess
p233
I3
sVdevelop
p234
I33
sVdilate
p235
I14
sVperform
p236
I18
sVradiation
p237
I6
sVsurveillance
p238
I1
sS'benign'
p239
I5
sS'subcutaneous'
p240
I6
sVadvise
p241
I1
sVseveral
p242
I16
sVstatus
p243
I68
sVassist
p244
I4
sVdeformity
p245
I58
sS'osteoarthritis'
p246
I9
sS'catheter'
p247
I73
sVdiabetes
p248
I3
sVinhalation
p249
I4
sVneuropathy
p250
I1
sVin the absence of
p251
I1
sVsevere
p252
I23
sVcontact
p253
I1
sS'withdraw'
p254
I1
sVinability
p255
I2
sVtherapy
p256
I10
sVdimension
p257
I2
sVplaque
p258
I2
sS'edema'
p259
I367
sVdistribute
p260
I1
sVobtain
p261
I61
sVdose
p262
I1
sS'proximal'
p263
I14
sValternative
p264
I4
sS'superficial'
p265
I2
sS'asthma'
p266
I38
sS'syncope'
p267
I29
sS'stent'
p268
I213
sS'intrathecal'
p269
I1
sVlocation
p270
I29
sS'adenopathy'
p271
I105
sS'plasma'
p272
I1
sVinsert
p273
I1
sS'nasogastric tube'
p274
I1
sS'inflation'
p275
I65
sVimmediately
p276
I2
sS'lymphoma'
p277
I7
sVvague
p278
I10
sS'acute'
p279
I2434
sS'malignancy'
p280
I13
sVmanifest
p281
I1
sVbenefit
p282
I3
sS'hepatic'
p283
I3
sVobstruct
p284
I30
sVspasm
p285
I3
sS'resect'
p286
I7
sVnotification
p287
I13
sS'hepatitis'
p288
I1
sS'inflammation'
p289
I5
sVmoderate
p290
I62
sS'intravenous'
p291
I6
sVminimal
p292
I87
sVlocate
p293
I4
sVschedule
p294
I5
sS'nasal'
p295
I2
sVcommunicate
p296
I1
sVhemodialysis
p297
I3
sVparalysis
p298
I3
sVtumor
p299
I10
sVregular
p300
I35
sS'implantation'
p301
I9
sS'assess'
p302
I9
sS'chronic'
p303
I153
sVappropriate
p304
I12
sVdetermine
p305
I6
sVhyperglycemia
p306
I1
sS'anorexia'
p307
I1
sVradiology
p308
I1
sVadditional
p309
I10
sVdiscoid
p310
I4
sVsegment
p311
I102
sVapproximate
p312
I36
sVsubmit
p313
I1
sVavail
p314
I243
sVintention
p315
I1
sS'clinical'
p316
I53
sS'secretion'
p317
I1
sVallergic
p318
I2
sS'emesis'
p319
I2
sVcomplete
p320
I26
sVrecommend
p321
I54
sVinjection
p322
I1
sVevident
p323
I4
sVsoreness
p324
I2
sVcharacteristic
p325
I5
sVmaximum
p326
I1
sVplaced
p327
I80
sVchronic obstructive pulmonary disease
p328
I6
sVdemonstrate
p329
I107
sVossification
p330
I2
sVsimilar
p331
I32
sVdiagnose
p332
I2
sVmedication
p333
I4
sVcontribute
p334
I1
sVcure
p335
I22
sS'hypertension'
p336
I43
sVanesthesia
p337
I7
sVkidney
p338
I11
sVmelanoma
p339
I4
sS'testes'
p340
I2
sS'telemetry'
p341
I1
sS'inject'
p342
I1
sVsuppress
p343
I4
sVdegenerative
p344
I321
sS'hypokalemia'
p345
I1
sS'idiopathic'
p346
I4
sS'vein'
p347
I12
sVexposure
p348
I7
sS'gastric'
p349
I16
sVbilateral
p350
I429
sS'thrombosis'
p351
I1
sVpersistent
p352
I30
sVportion
p353
I9
sVdiagnosis
p354
I18
sS'oral'
p355
I7
s.